target datalayout = "e-m:e-p270:32:32-p271:32:32-p272:64:64-i64:64-i128:128-f80:128-n8:16:32:64-S128"
target triple = "x86_64-pc-linux-gnu"

%struct.ILookInStream = type { ptr, ptr, ptr, ptr }
%struct.CLookToRead = type { %struct.ILookInStream, ptr, i64, i64, [16384 x i8] }

; Function Attrs: nounwind uwtable
define void @LookToRead_CreateVTable(ptr noundef %0, i32 noundef %1) #0 {
  %3 = alloca ptr, align 8
  %4 = alloca i32, align 4
  store ptr %0, ptr %3, align 8, !tbaa !3
  store i32 %1, ptr %4, align 4, !tbaa !9
  %5 = load i32, ptr %4, align 4, !tbaa !9
  %6 = icmp ne i32 %5, 0
  %7 = select i1 %6, ptr @LookToRead_Look_Lookahead, ptr @LookToRead_Look_Exact
  %8 = load ptr, ptr %3, align 8, !tbaa !3
  %9 = getelementptr inbounds nuw %struct.CLookToRead, ptr %8, i32 0, i32 0
  %10 = getelementptr inbounds nuw %struct.ILookInStream, ptr %9, i32 0, i32 0
  store ptr %7, ptr %10, align 8, !tbaa !24
  %11 = load ptr, ptr %3, align 8, !tbaa !3
  %12 = getelementptr inbounds nuw %struct.CLookToRead, ptr %11, i32 0, i32 0
  %13 = getelementptr inbounds nuw %struct.ILookInStream, ptr %12, i32 0, i32 1
  store ptr @LookToRead_Skip, ptr %13, align 8, !tbaa !26
  %14 = load ptr, ptr %3, align 8, !tbaa !3
  %15 = getelementptr inbounds nuw %struct.CLookToRead, ptr %14, i32 0, i32 0
  %16 = getelementptr inbounds nuw %struct.ILookInStream, ptr %15, i32 0, i32 2
  store ptr @LookToRead_Read, ptr %16, align 8, !tbaa !27
  %17 = load ptr, ptr %3, align 8, !tbaa !3
  %18 = getelementptr inbounds nuw %struct.CLookToRead, ptr %17, i32 0, i32 0
  %19 = getelementptr inbounds nuw %struct.ILookInStream, ptr %18, i32 0, i32 3
  store ptr @LookToRead_Seek, ptr %19, align 8, !tbaa !28
  ret void
}