; Function Attrs: mustprogress nofree norecurse nosync nounwind willreturn memory(argmem: write) uwtable
define void @LookToRead_CreateVTable(ptr noundef writeonly captures(none) initializes((0, 32)) %0, i32 noundef %1) local_unnamed_addr #3 {
  %.not = icmp eq i32 %1, 0
  %3 = select i1 %.not, ptr @LookToRead_Look_Exact, ptr @LookToRead_Look_Lookahead
  store ptr %3, ptr %0, align 8, !tbaa !18
  %4 = getelementptr inbounds nuw i8, ptr %0, i64 8
  store ptr @LookToRead_Skip, ptr %4, align 8, !tbaa !20
  %5 = getelementptr inbounds nuw i8, ptr %0, i64 16
  store ptr @LookToRead_Read, ptr %5, align 8, !tbaa !21
  %6 = getelementptr inbounds nuw i8, ptr %0, i64 24
  store ptr @LookToRead_Seek, ptr %6, align 8, !tbaa !22
  ret void
}